target datalayout = "e-m:e-p270:32:32-p271:32:32-p272:64:64-i64:64-i128:128-f80:128-n8:16:32:64-S128"
target triple = "x86_64-pc-linux-gnu"

%struct.strbuf = type { i64, i64, ptr }
%struct.apply_state = type { ptr, %struct.lock_file, i32, i32, i32, i32, i32, i32, i32, i32, i32, i32, i32, i32, i32, i32, i32, i32, i32, ptr, ptr, i32, i32, ptr, ptr, i32, %struct.strbuf, i32, i32, i32, %struct.string_list, i32, i32, %struct.strset, %struct.strset, i32, i32, %struct.string_list, ptr, ptr, i32, i32, ptr, i32, i32, i32 }
%struct.lock_file = type { ptr }
%struct.strset = type { %struct.strmap }
%struct.strmap = type { %struct.hashmap, ptr, i8 }
%struct.hashmap = type { ptr, ptr, ptr, i32, i32, i32, i32, i8 }
%struct.string_list = type { ptr, i64, i64, i8, ptr }
%struct.option = type { i32, i32, ptr, ptr, ptr, ptr, i32, ptr, i64, ptr, i64, ptr }

@.str.180 = private unnamed_addr constant [8 x i8] c"apply.c\00", align 1
@.str.270 = private unnamed_addr constant [41 x i8] c"option callback does not expect negation\00", align 1

; Function Attrs: nounwind uwtable
define internal i32 @apply_option_parse_whitespace(ptr noundef %0, ptr noundef %1, i32 noundef %2) #0 {
  %4 = alloca i32, align 4
  %5 = alloca ptr, align 8
  %6 = alloca ptr, align 8
  %7 = alloca i32, align 4
  %8 = alloca ptr, align 8
  %9 = alloca i32, align 4
  store ptr %0, ptr %5, align 8, !tbaa !153
  store ptr %1, ptr %6, align 8, !tbaa !11
  store i32 %2, ptr %7, align 4, !tbaa !39
  call void @llvm.lifetime.start.p0(i64 8, ptr %8) #12
  %10 = load ptr, ptr %5, align 8, !tbaa !153
  %11 = getelementptr inbounds nuw %struct.option, ptr %10, i32 0, i32 3
  %12 = load ptr, ptr %11, align 8, !tbaa !143
  store ptr %12, ptr %8, align 8, !tbaa !4
  br label %13

13:                                               ; preds = %3
  %14 = load i32, ptr %7, align 4, !tbaa !39
  %15 = icmp ne i32 %14, 0
  br i1 %15, label %16, label %17

16:                                               ; preds = %13
  call void (ptr, i32, ptr, ...) @BUG_fl(ptr noundef @.str.180, i32 noundef 4943, ptr noundef @.str.270) #14
  unreachable

17:                                               ; preds = %13
  br label %18

18:                                               ; preds = %17
  br label %19

19:                                               ; preds = %18
  %20 = load ptr, ptr %6, align 8, !tbaa !11
  %21 = load ptr, ptr %8, align 8, !tbaa !4
  %22 = getelementptr inbounds nuw %struct.apply_state, ptr %21, i32 0, i32 42
  store ptr %20, ptr %22, align 8, !tbaa !136
  %23 = load ptr, ptr %8, align 8, !tbaa !4
  %24 = load ptr, ptr %6, align 8, !tbaa !11
  %25 = call i32 @parse_whitespace_option(ptr noundef %23, ptr noundef %24)
  %26 = icmp ne i32 %25, 0
  br i1 %26, label %27, label %28

27:                                               ; preds = %19
  store i32 -1, ptr %4, align 4
  store i32 1, ptr %9, align 4
  br label %29

28:                                               ; preds = %19
  store i32 0, ptr %4, align 4
  store i32 1, ptr %9, align 4
  br label %29

29:                                               ; preds = %28, %27
  call void @llvm.lifetime.end.p0(i64 8, ptr %8) #12
  %30 = load i32, ptr %4, align 4
  ret i32 %30
}