; Function Attrs: nounwind uwtable
define internal range(i32 -1, 1) i32 @apply_option_parse_whitespace(ptr noundef readonly captures(none) %0, ptr noundef %1, i32 noundef %2) #0 {
  %.not = icmp eq i32 %2, 0
  br i1 %.not, label %5, label %4

4:                                                ; preds = %3
  tail call void (ptr, i32, ptr, ...) @BUG_fl(ptr noundef nonnull @.str.180, i32 noundef 4943, ptr noundef nonnull @.str.270) #25
  unreachable

5:                                                ; preds = %3
  %6 = getelementptr inbounds nuw i8, ptr %0, i64 16
  %7 = load ptr, ptr %6, align 8, !tbaa !202
  %8 = getelementptr inbounds nuw i8, ptr %7, i64 424
  store ptr %1, ptr %8, align 8, !tbaa !104
  %9 = tail call fastcc i32 @parse_whitespace_option(ptr noundef %7, ptr noundef %1)
  %.not6 = icmp ne i32 %9, 0
  %. = sext i1 %.not6 to i32
  ret i32 %.
}